; Function Attrs: mustprogress uwtable
define hidden void @_ZN19OpenColorIO_v2_4dev11RangeOpDataC2Ev(ptr noundef nonnull align 8 dereferenceable(228) %this) unnamed_addr #3 align 2 personality ptr @__gxx_personality_v0 {
entry:
  tail call void @_ZN19OpenColorIO_v2_4dev6OpDataC2Ev(ptr noundef nonnull align 8 dereferenceable(168) %this)
  store ptr getelementptr inbounds ({ [13 x ptr] }, ptr @_ZTVN19OpenColorIO_v2_4dev11RangeOpDataE, i64 0, i32 0, i64 2), ptr %this, align 8
  %m_minInValue = getelementptr inbounds i8, ptr %this, i64 168
  store <2 x double> <double 0x7FF8000000000000, double 0x7FF8000000000000>, ptr %m_minInValue, align 8
  %m_minOutValue = getelementptr inbounds i8, ptr %this, i64 184
  store <2 x double> <double 0x7FF8000000000000, double 0x7FF8000000000000>, ptr %m_minOutValue, align 8
  %m_scale = getelementptr inbounds i8, ptr %this, i64 200
  store double 1.000000e+00, ptr %m_scale, align 8
  %m_offset = getelementptr inbounds i8, ptr %this, i64 208
  tail call void @llvm.memset.p0.i64(ptr noundef nonnull align 8 dereferenceable(20) %m_offset, i8 0, i64 20, i1 false)
  ret void
}